; ModuleID = '4/950.c'
source_filename = "4/950.c"
target datalayout = "e-m:e-p270:32:32-p271:32:32-p272:64:64-i64:64-f80:128-n8:16:32:64-S128"
target triple = "x86_64-pc-linux-gnu"

@.str = private unnamed_addr constant [6 x i8] c"%d %d\00", align 1
@.str.1 = private unnamed_addr constant [3 x i8] c"%d\00", align 1
@.str.2 = private unnamed_addr constant [4 x i8] c"%d\0A\00", align 1

; Function Attrs: noinline nounwind uwtable
define dso_local i32 @main() #0 {
  %1 = alloca i32, align 4
  %2 = alloca [100 x [100 x i32]], align 16
  %3 = alloca i32, align 4
  %4 = alloca i32, align 4
  %5 = alloca i32, align 4
  %6 = alloca i32, align 4
  %7 = alloca i32, align 4
  %8 = alloca i32, align 4
  %9 = alloca i32, align 4
  store i32 0, i32* %1, align 4
  %10 = call i32 (i8*, ...) @__isoc99_scanf(i8* getelementptr inbounds ([6 x i8], [6 x i8]* @.str, i64 0, i64 0), i32* %7, i32* %8)
  store i32 0, i32* %3, align 4
  br label %11

11:                                               ; preds = %33, %0
  %12 = load i32, i32* %3, align 4
  %13 = load i32, i32* %7, align 4
  %14 = icmp slt i32 %12, %13
  br i1 %14, label %15, label %36

15:                                               ; preds = %11
  store i32 0, i32* %4, align 4
  br label %16

16:                                               ; preds = %29, %15
  %17 = load i32, i32* %4, align 4
  %18 = load i32, i32* %8, align 4
  %19 = icmp slt i32 %17, %18
  br i1 %19, label %20, label %32

20:                                               ; preds = %16
  %21 = call i32 (i8*, ...) @__isoc99_scanf(i8* getelementptr inbounds ([3 x i8], [3 x i8]* @.str.1, i64 0, i64 0), i32* %9)
  %22 = load i32, i32* %9, align 4
  %23 = load i32, i32* %3, align 4
  %24 = sext i32 %23 to i64
  %25 = getelementptr inbounds [100 x [100 x i32]], [100 x [100 x i32]]* %2, i64 0, i64 %24
  %26 = load i32, i32* %4, align 4
  %27 = sext i32 %26 to i64
  %28 = getelementptr inbounds [100 x i32], [100 x i32]* %25, i64 0, i64 %27
  store i32 %22, i32* %28, align 4
  br label %29

29:                                               ; preds = %20
  %30 = load i32, i32* %4, align 4
  %31 = add nsw i32 %30, 1
  store i32 %31, i32* %4, align 4
  br label %16

32:                                               ; preds = %16
  br label %33

33:                                               ; preds = %32
  %34 = load i32, i32* %3, align 4
  %35 = add nsw i32 %34, 1
  store i32 %35, i32* %3, align 4
  br label %11

36:                                               ; preds = %11
  store i32 0, i32* %5, align 4
  br label %37

37:                                               ; preds = %78, %36
  %38 = load i32, i32* %5, align 4
  %39 = load i32, i32* %7, align 4
  %40 = load i32, i32* %8, align 4
  %41 = add nsw i32 %39, %40
  %42 = sub nsw i32 %41, 2
  %43 = icmp sle i32 %38, %42
  br i1 %43, label %44, label %81

44:                                               ; preds = %37
  store i32 0, i32* %3, align 4
  br label %45

45:                                               ; preds = %74, %44
  %46 = load i32, i32* %3, align 4
  %47 = load i32, i32* %7, align 4
  %48 = icmp slt i32 %46, %47
  br i1 %48, label %49, label %77

49:                                               ; preds = %45
  store i32 0, i32* %4, align 4
  br label %50

50:                                               ; preds = %70, %49
  %51 = load i32, i32* %4, align 4
  %52 = load i32, i32* %8, align 4
  %53 = icmp slt i32 %51, %52
  br i1 %53, label %54, label %73

54:                                               ; preds = %50
  %55 = load i32, i32* %3, align 4
  %56 = load i32, i32* %4, align 4
  %57 = add nsw i32 %55, %56
  %58 = load i32, i32* %5, align 4
  %59 = icmp eq i32 %57, %58
  br i1 %59, label %60, label %69

60:                                               ; preds = %54
  %61 = load i32, i32* %3, align 4
  %62 = sext i32 %61 to i64
  %63 = getelementptr inbounds [100 x [100 x i32]], [100 x [100 x i32]]* %2, i64 0, i64 %62
  %64 = load i32, i32* %4, align 4
  %65 = sext i32 %64 to i64
  %66 = getelementptr inbounds [100 x i32], [100 x i32]* %63, i64 0, i64 %65
  %67 = load i32, i32* %66, align 4
  %68 = call i32 (i8*, ...) @printf(i8* getelementptr inbounds ([4 x i8], [4 x i8]* @.str.2, i64 0, i64 0), i32 %67)
  br label %69

69:                                               ; preds = %60, %54
  br label %70

70:                                               ; preds = %69
  %71 = load i32, i32* %4, align 4
  %72 = add nsw i32 %71, 1
  store i32 %72, i32* %4, align 4
  br label %50

73:                                               ; preds = %50
  br label %74

74:                                               ; preds = %73
  %75 = load i32, i32* %3, align 4
  %76 = add nsw i32 %75, 1
  store i32 %76, i32* %3, align 4
  br label %45

77:                                               ; preds = %45
  br label %78

78:                                               ; preds = %77
  %79 = load i32, i32* %5, align 4
  %80 = add nsw i32 %79, 1
  store i32 %80, i32* %5, align 4
  br label %37

81:                                               ; preds = %37
  ret i32 0
}

declare dso_local i32 @__isoc99_scanf(i8*, ...) #1

declare dso_local i32 @printf(i8*, ...) #1


!llvm.module.flags = !{!0}
!llvm.ident = !{!1}

!0 = !{i32 1, !"wchar_size", i32 4}
!1 = !{!"clang version 10.0.0-4ubuntu1 "}
